target datalayout = "e-m:e-p270:32:32-p271:32:32-p272:64:64-i64:64-i128:128-f80:128-n8:16:32:64-S128"
target triple = "x86_64-pc-linux-gnu"

%struct.anon = type { i8 }
%class.anon.0 = type { i32 }

@_ZL6hb_min = internal constant %struct.anon zeroinitializer, align 1

; Function Attrs: inlinehint mustprogress nounwind uwtable
define internal noundef i64 @"_ZZ13hb_parse_uintPPKcS0_PjbiENK3$_0clES0_PPc"(ptr noundef nonnull align 4 dereferenceable(4) %0, ptr noundef %1, ptr noundef %2) #2 align 2 {
  %4 = alloca ptr, align 8
  %5 = alloca ptr, align 8
  %6 = alloca ptr, align 8
  store ptr %0, ptr %4, align 8, !tbaa !32
  store ptr %1, ptr %5, align 8, !tbaa !10
  store ptr %2, ptr %6, align 8, !tbaa !4
  %7 = load ptr, ptr %4, align 8
  %8 = load ptr, ptr %5, align 8, !tbaa !10
  %9 = load ptr, ptr %6, align 8, !tbaa !4
  %10 = getelementptr inbounds nuw %class.anon.0, ptr %7, i32 0, i32 0
  %11 = load i32, ptr %10, align 4, !tbaa !21
  %12 = call i64 @strtoul(ptr noundef %8, ptr noundef %9, i32 noundef %11) #7
  ret i64 %12
}

; Function Attrs: mustprogress nounwind uwtable
define internal noundef nonnull align 4 dereferenceable(4) ptr @"_ZNK3$_2clIjjEEDTqulefp_fp0_fp_fp0_EOT_OT0_"(ptr noundef nonnull align 1 dereferenceable(1) %0, ptr noundef nonnull align 4 dereferenceable(4) %1, ptr noundef nonnull align 4 dereferenceable(4) %2) #0 align 2 {
  %4 = alloca ptr, align 8
  %5 = alloca ptr, align 8
  %6 = alloca ptr, align 8
  store ptr %0, ptr %4, align 8, !tbaa !32
  store ptr %1, ptr %5, align 8, !tbaa !12
  store ptr %2, ptr %6, align 8, !tbaa !12
  %7 = load ptr, ptr %5, align 8, !tbaa !12
  %8 = load i32, ptr %7, align 4, !tbaa !18
  %9 = load ptr, ptr %6, align 8, !tbaa !12
  %10 = load i32, ptr %9, align 4, !tbaa !18
  %11 = icmp ule i32 %8, %10
  br i1 %11, label %12, label %14

12:                                               ; preds = %3
  %13 = load ptr, ptr %5, align 8, !tbaa !12
  br label %16

14:                                               ; preds = %3
  %15 = load ptr, ptr %6, align 8, !tbaa !12
  br label %16

16:                                               ; preds = %14, %12
  %17 = phi ptr [ %13, %12 ], [ %15, %14 ]
  ret ptr %17
}

; Function Attrs: inlinehint mustprogress nounwind uwtable
define internal noundef i32 @_ZL12ARRAY_LENGTHIcLj32EEjRAT0__KT_(ptr noundef nonnull align 1 dereferenceable(32) %0) #2 {
  %2 = alloca ptr, align 8
  store ptr %0, ptr %2, align 8, !tbaa !10
  ret i32 32
}

; Function Attrs: mustprogress nounwind uwtable
define internal noundef zeroext i1 @"_ZL13_parse_numberIjZ13hb_parse_uintPPKcS1_PjbiE3$_0EbS2_S1_PT_bT0_"(ptr noundef %0, ptr noundef %1, ptr noundef %2, i1 noundef zeroext %3, i32 %4) #0 {
  %6 = alloca i1, align 1
  %7 = alloca %class.anon.0, align 4
  %8 = alloca ptr, align 8
  %9 = alloca ptr, align 8
  %10 = alloca ptr, align 8
  %11 = alloca i8, align 1
  %12 = alloca [32 x i8], align 16
  %13 = alloca i32, align 4
  %14 = alloca i32, align 4
  %15 = alloca i32, align 4
  %16 = alloca ptr, align 8
  %17 = alloca ptr, align 8
  %18 = alloca i32, align 4
  %19 = getelementptr inbounds nuw %class.anon.0, ptr %7, i32 0, i32 0
  store i32 %4, ptr %19, align 4
  store ptr %0, ptr %8, align 8, !tbaa !4
  store ptr %1, ptr %9, align 8, !tbaa !10
  store ptr %2, ptr %10, align 8, !tbaa !12
  %20 = zext i1 %3 to i8
  store i8 %20, ptr %11, align 1, !tbaa !14
  call void @llvm.lifetime.start.p0(i64 32, ptr %12) #7
  call void @llvm.lifetime.start.p0(i64 4, ptr %13) #7
  call void @llvm.lifetime.start.p0(i64 4, ptr %14) #7
  %21 = call noundef i32 @_ZL12ARRAY_LENGTHIcLj32EEjRAT0__KT_(ptr noundef nonnull align 1 dereferenceable(32) %12)
  %22 = sub i32 %21, 1
  store i32 %22, ptr %14, align 4, !tbaa !18
  call void @llvm.lifetime.start.p0(i64 4, ptr %15) #7
  %23 = load ptr, ptr %9, align 8, !tbaa !10
  %24 = load ptr, ptr %8, align 8, !tbaa !4
  %25 = load ptr, ptr %24, align 8, !tbaa !10
  %26 = ptrtoint ptr %23 to i64
  %27 = ptrtoint ptr %25 to i64
  %28 = sub i64 %26, %27
  %29 = trunc i64 %28 to i32
  store i32 %29, ptr %15, align 4, !tbaa !18
  %30 = call noundef nonnull align 4 dereferenceable(4) ptr @"_ZNK3$_2clIjjEEDTqulefp_fp0_fp_fp0_EOT_OT0_"(ptr noundef nonnull align 1 dereferenceable(1) @_ZL6hb_min, ptr noundef nonnull align 4 dereferenceable(4) %14, ptr noundef nonnull align 4 dereferenceable(4) %15)
  %31 = load i32, ptr %30, align 4, !tbaa !18
  call void @llvm.lifetime.end.p0(i64 4, ptr %15) #7
  call void @llvm.lifetime.end.p0(i64 4, ptr %14) #7
  store i32 %31, ptr %13, align 4, !tbaa !18
  %32 = getelementptr inbounds [32 x i8], ptr %12, i64 0, i64 0
  %33 = load ptr, ptr %8, align 8, !tbaa !4
  %34 = load ptr, ptr %33, align 8, !tbaa !10
  %35 = load i32, ptr %13, align 4, !tbaa !18
  %36 = zext i32 %35 to i64
  %37 = call ptr @strncpy(ptr noundef %32, ptr noundef %34, i64 noundef %36) #7
  %38 = load i32, ptr %13, align 4, !tbaa !18
  %39 = zext i32 %38 to i64
  %40 = getelementptr inbounds nuw [32 x i8], ptr %12, i64 0, i64 %39
  store i8 0, ptr %40, align 1, !tbaa !20
  call void @llvm.lifetime.start.p0(i64 8, ptr %16) #7
  %41 = getelementptr inbounds [32 x i8], ptr %12, i64 0, i64 0
  store ptr %41, ptr %16, align 8, !tbaa !10
  call void @llvm.lifetime.start.p0(i64 8, ptr %17) #7
  %42 = load ptr, ptr %16, align 8, !tbaa !10
  store ptr %42, ptr %17, align 8, !tbaa !10
  %43 = call ptr @__errno_location() #8
  store i32 0, ptr %43, align 4, !tbaa !18
  %44 = load ptr, ptr %16, align 8, !tbaa !10
  %45 = call noundef i64 @"_ZZ13hb_parse_uintPPKcS0_PjbiENK3$_0clES0_PPc"(ptr noundef nonnull align 4 dereferenceable(4) %7, ptr noundef %44, ptr noundef %17)
  %46 = trunc i64 %45 to i32
  %47 = load ptr, ptr %10, align 8, !tbaa !12
  store i32 %46, ptr %47, align 4, !tbaa !18
  %48 = call ptr @__errno_location() #8
  %49 = load i32, ptr %48, align 4, !tbaa !18
  %50 = icmp ne i32 %49, 0
  br i1 %50, label %73, label %51

51:                                               ; preds = %5
  %52 = load ptr, ptr %16, align 8, !tbaa !10
  %53 = load ptr, ptr %17, align 8, !tbaa !10
  %54 = icmp eq ptr %52, %53
  br i1 %54, label %73, label %55

55:                                               ; preds = %51
  %56 = load i8, ptr %11, align 1, !tbaa !14, !range !16, !noundef !17
  %57 = trunc i8 %56 to i1
  br i1 %57, label %58, label %71

58:                                               ; preds = %55
  %59 = load ptr, ptr %17, align 8, !tbaa !10
  %60 = load ptr, ptr %16, align 8, !tbaa !10
  %61 = ptrtoint ptr %59 to i64
  %62 = ptrtoint ptr %60 to i64
  %63 = sub i64 %61, %62
  %64 = load ptr, ptr %9, align 8, !tbaa !10
  %65 = load ptr, ptr %8, align 8, !tbaa !4
  %66 = load ptr, ptr %65, align 8, !tbaa !10
  %67 = ptrtoint ptr %64 to i64
  %68 = ptrtoint ptr %66 to i64
  %69 = sub i64 %67, %68
  %70 = icmp ne i64 %63, %69
  br label %71

71:                                               ; preds = %58, %55
  %72 = phi i1 [ false, %55 ], [ %70, %58 ]
  br label %73

73:                                               ; preds = %71, %51, %5
  %74 = phi i1 [ true, %51 ], [ true, %5 ], [ %72, %71 ]
  %75 = zext i1 %74 to i64
  %76 = call i64 @llvm.expect.i64(i64 %75, i64 0)
  %77 = icmp ne i64 %76, 0
  br i1 %77, label %78, label %79

78:                                               ; preds = %73
  store i1 false, ptr %6, align 1
  store i32 1, ptr %18, align 4
  br label %88

79:                                               ; preds = %73
  %80 = load ptr, ptr %17, align 8, !tbaa !10
  %81 = load ptr, ptr %16, align 8, !tbaa !10
  %82 = ptrtoint ptr %80 to i64
  %83 = ptrtoint ptr %81 to i64
  %84 = sub i64 %82, %83
  %85 = load ptr, ptr %8, align 8, !tbaa !4
  %86 = load ptr, ptr %85, align 8, !tbaa !10
  %87 = getelementptr inbounds i8, ptr %86, i64 %84
  store ptr %87, ptr %85, align 8, !tbaa !10
  store i1 true, ptr %6, align 1
  store i32 1, ptr %18, align 4
  br label %88

88:                                               ; preds = %79, %78
  call void @llvm.lifetime.end.p0(i64 8, ptr %17) #7
  call void @llvm.lifetime.end.p0(i64 8, ptr %16) #7
  call void @llvm.lifetime.end.p0(i64 4, ptr %13) #7
  call void @llvm.lifetime.end.p0(i64 32, ptr %12) #7
  %89 = load i1, ptr %6, align 1
  ret i1 %89
}

; Function Attrs: mustprogress nounwind uwtable
define hidden noundef zeroext i1 @_Z13hb_parse_uintPPKcS0_Pjbi(ptr noundef %0, ptr noundef %1, ptr noundef %2, i1 noundef zeroext %3, i32 noundef %4) #0 {
  %6 = alloca ptr, align 8
  %7 = alloca ptr, align 8
  %8 = alloca ptr, align 8
  %9 = alloca i8, align 1
  %10 = alloca i32, align 4
  %11 = alloca %class.anon.0, align 4
  store ptr %0, ptr %6, align 8, !tbaa !4
  store ptr %1, ptr %7, align 8, !tbaa !10
  store ptr %2, ptr %8, align 8, !tbaa !12
  %12 = zext i1 %3 to i8
  store i8 %12, ptr %9, align 1, !tbaa !14
  store i32 %4, ptr %10, align 4, !tbaa !18
  %13 = load ptr, ptr %6, align 8, !tbaa !4
  %14 = load ptr, ptr %7, align 8, !tbaa !10
  %15 = load ptr, ptr %8, align 8, !tbaa !12
  %16 = load i8, ptr %9, align 1, !tbaa !14, !range !16, !noundef !17
  %17 = trunc i8 %16 to i1
  %18 = getelementptr inbounds nuw %class.anon.0, ptr %11, i32 0, i32 0
  %19 = load i32, ptr %10, align 4, !tbaa !18
  store i32 %19, ptr %18, align 4, !tbaa !21
  %20 = getelementptr inbounds nuw %class.anon.0, ptr %11, i32 0, i32 0
  %21 = load i32, ptr %20, align 4
  %22 = call noundef zeroext i1 @"_ZL13_parse_numberIjZ13hb_parse_uintPPKcS1_PjbiE3$_0EbS2_S1_PT_bT0_"(ptr noundef %13, ptr noundef %14, ptr noundef %15, i1 noundef zeroext %17, i32 %21)
  ret i1 %22
}