; Function Attrs: mustprogress nofree nounwind willreturn uwtable
define hidden noundef zeroext i1 @_Z13hb_parse_uintPPKcS0_Pjbi(ptr noundef captures(none) %0, ptr noundef %1, ptr noundef writeonly captures(none) initializes((0, 4)) %2, i1 noundef zeroext %3, i32 noundef %4) local_unnamed_addr #0 {
  %6 = alloca [32 x i8], align 16
  %7 = alloca ptr, align 8
  call void @llvm.lifetime.start.p0(i64 32, ptr nonnull %6) #8
  %8 = load ptr, ptr %0, align 8, !tbaa !4
  %9 = ptrtoint ptr %1 to i64
  %10 = ptrtoint ptr %8 to i64
  %11 = sub i64 %9, %10
  %12 = trunc i64 %11 to i32
  %.sroa.speculated.i = tail call i32 @llvm.umin.i32(i32 %12, i32 31)
  %13 = zext nneg i32 %.sroa.speculated.i to i64
  %14 = call ptr @strncpy(ptr noundef nonnull %6, ptr noundef %8, i64 noundef %13) #8
  %15 = getelementptr inbounds nuw [32 x i8], ptr %6, i64 0, i64 %13
  store i8 0, ptr %15, align 1, !tbaa !9
  call void @llvm.lifetime.start.p0(i64 8, ptr nonnull %7) #8
  store ptr %6, ptr %7, align 8, !tbaa !4
  %16 = tail call ptr @__errno_location() #9
  store i32 0, ptr %16, align 4, !tbaa !10
  %17 = call noundef i64 @strtoul(ptr noundef nonnull %6, ptr noundef nonnull %7, i32 noundef %4) #8
  %18 = trunc i64 %17 to i32
  store i32 %18, ptr %2, align 4, !tbaa !10
  %19 = load i32, ptr %16, align 4, !tbaa !10
  %.not.i = icmp eq i32 %19, 0
  br i1 %.not.i, label %20, label %"_ZL13_parse_numberIjZ13hb_parse_uintPPKcS1_PjbiE3$_0EbS2_S1_PT_bT0_.exit", !prof !12

20:                                               ; preds = %5
  %21 = load ptr, ptr %7, align 8, !tbaa !4
  %22 = icmp ne ptr %6, %21
  %brmerge.not.i = and i1 %3, %22
  br i1 %brmerge.not.i, label %23, label %30, !prof !13

23:                                               ; preds = %20
  %24 = ptrtoint ptr %21 to i64
  %25 = ptrtoint ptr %6 to i64
  %26 = sub i64 %24, %25
  %27 = load ptr, ptr %0, align 8, !tbaa !4
  %28 = ptrtoint ptr %27 to i64
  %29 = sub i64 %9, %28
  %.not22.i = icmp eq i64 %26, %29
  br i1 %.not22.i, label %31, label %"_ZL13_parse_numberIjZ13hb_parse_uintPPKcS1_PjbiE3$_0EbS2_S1_PT_bT0_.exit", !prof !14

30:                                               ; preds = %20
  br i1 %22, label %._crit_edge.i, label %"_ZL13_parse_numberIjZ13hb_parse_uintPPKcS1_PjbiE3$_0EbS2_S1_PT_bT0_.exit", !prof !14

._crit_edge.i:                                    ; preds = %30
  %.pre.i = load ptr, ptr %0, align 8, !tbaa !4
  %.pre23.i = ptrtoint ptr %21 to i64
  %.pre24.i = ptrtoint ptr %6 to i64
  %.pre26.i = sub i64 %.pre23.i, %.pre24.i
  br label %31

31:                                               ; preds = %._crit_edge.i, %23
  %.pre-phi27.i = phi i64 [ %.pre26.i, %._crit_edge.i ], [ %26, %23 ]
  %32 = phi ptr [ %.pre.i, %._crit_edge.i ], [ %27, %23 ]
  %33 = getelementptr inbounds i8, ptr %32, i64 %.pre-phi27.i
  store ptr %33, ptr %0, align 8, !tbaa !4
  br label %"_ZL13_parse_numberIjZ13hb_parse_uintPPKcS1_PjbiE3$_0EbS2_S1_PT_bT0_.exit"

"_ZL13_parse_numberIjZ13hb_parse_uintPPKcS1_PjbiE3$_0EbS2_S1_PT_bT0_.exit": ; preds = %5, %23, %30, %31
  %.0.i = phi i1 [ false, %30 ], [ true, %31 ], [ false, %23 ], [ false, %5 ]
  call void @llvm.lifetime.end.p0(i64 8, ptr nonnull %7) #8
  call void @llvm.lifetime.end.p0(i64 32, ptr nonnull %6) #8
  ret i1 %.0.i
}